target datalayout = "e-m:e-p270:32:32-p271:32:32-p272:64:64-i64:64-i128:128-f80:128-n8:16:32:64-S128"
target triple = "x86_64-pc-linux-gnu"

%struct.fdt_header = type { i32, i32, i32, i32, i32, i32, i32, i32, i32, i32 }

; Function Attrs: inlinehint nounwind uwtable
define internal i32 @cpu_to_fdt32(i32 noundef %0) #3 {
  %2 = alloca i32, align 4
  store i32 %0, ptr %2, align 4
  %3 = getelementptr inbounds i8, ptr %2, i64 0
  %4 = load i8, ptr %3, align 4
  %5 = zext i8 %4 to i64
  %6 = shl i64 %5, 24
  %7 = getelementptr inbounds i8, ptr %2, i64 1
  %8 = load i8, ptr %7, align 1
  %9 = zext i8 %8 to i64
  %10 = shl i64 %9, 16
  %11 = or i64 %6, %10
  %12 = getelementptr inbounds i8, ptr %2, i64 2
  %13 = load i8, ptr %12, align 2
  %14 = zext i8 %13 to i64
  %15 = shl i64 %14, 8
  %16 = or i64 %11, %15
  %17 = getelementptr inbounds i8, ptr %2, i64 3
  %18 = load i8, ptr %17, align 1
  %19 = zext i8 %18 to i64
  %20 = or i64 %16, %19
  %21 = trunc i64 %20 to i32
  ret i32 %21
}

; Function Attrs: inlinehint nounwind uwtable
define internal void @fdt_set_off_dt_strings(ptr noundef %0, i32 noundef %1) #3 {
  %3 = alloca ptr, align 8
  %4 = alloca i32, align 4
  %5 = alloca ptr, align 8
  store ptr %0, ptr %3, align 8
  store i32 %1, ptr %4, align 4
  call void @llvm.lifetime.start.p0(i64 8, ptr %5) #7
  %6 = load ptr, ptr %3, align 8
  store ptr %6, ptr %5, align 8
  %7 = load i32, ptr %4, align 4
  %8 = call i32 @cpu_to_fdt32(i32 noundef %7)
  %9 = load ptr, ptr %5, align 8
  %10 = getelementptr inbounds nuw %struct.fdt_header, ptr %9, i32 0, i32 3
  store i32 %8, ptr %10, align 4
  call void @llvm.lifetime.end.p0(i64 8, ptr %5) #7
  ret void
}

; Function Attrs: inlinehint nounwind uwtable
define internal void @fdt_set_totalsize(ptr noundef %0, i32 noundef %1) #3 {
  %3 = alloca ptr, align 8
  %4 = alloca i32, align 4
  %5 = alloca ptr, align 8
  store ptr %0, ptr %3, align 8
  store i32 %1, ptr %4, align 4
  call void @llvm.lifetime.start.p0(i64 8, ptr %5) #7
  %6 = load ptr, ptr %3, align 8
  store ptr %6, ptr %5, align 8
  %7 = load i32, ptr %4, align 4
  %8 = call i32 @cpu_to_fdt32(i32 noundef %7)
  %9 = load ptr, ptr %5, align 8
  %10 = getelementptr inbounds nuw %struct.fdt_header, ptr %9, i32 0, i32 1
  store i32 %8, ptr %10, align 4
  call void @llvm.lifetime.end.p0(i64 8, ptr %5) #7
  ret void
}

; Function Attrs: inlinehint nounwind uwtable
define internal zeroext i1 @can_assume_(i32 noundef %0) #3 {
  %2 = alloca i32, align 4
  store i32 %0, ptr %2, align 4
  %3 = load i32, ptr %2, align 4
  %4 = and i32 0, %3
  %5 = icmp ne i32 %4, 0
  ret i1 %5
}

; Function Attrs: inlinehint nounwind uwtable
define internal i32 @fdt32_ld(ptr noundef %0) #3 {
  %2 = alloca ptr, align 8
  %3 = alloca ptr, align 8
  store ptr %0, ptr %2, align 8
  call void @llvm.lifetime.start.p0(i64 8, ptr %3) #7
  %4 = load ptr, ptr %2, align 8
  store ptr %4, ptr %3, align 8
  %5 = load ptr, ptr %3, align 8
  %6 = getelementptr inbounds i8, ptr %5, i64 0
  %7 = load i8, ptr %6, align 1
  %8 = zext i8 %7 to i32
  %9 = shl i32 %8, 24
  %10 = load ptr, ptr %3, align 8
  %11 = getelementptr inbounds i8, ptr %10, i64 1
  %12 = load i8, ptr %11, align 1
  %13 = zext i8 %12 to i32
  %14 = shl i32 %13, 16
  %15 = or i32 %9, %14
  %16 = load ptr, ptr %3, align 8
  %17 = getelementptr inbounds i8, ptr %16, i64 2
  %18 = load i8, ptr %17, align 1
  %19 = zext i8 %18 to i32
  %20 = shl i32 %19, 8
  %21 = or i32 %15, %20
  %22 = load ptr, ptr %3, align 8
  %23 = getelementptr inbounds i8, ptr %22, i64 3
  %24 = load i8, ptr %23, align 1
  %25 = zext i8 %24 to i32
  %26 = or i32 %21, %25
  call void @llvm.lifetime.end.p0(i64 8, ptr %3) #7
  ret i32 %26
}

; Function Attrs: nounwind uwtable
define internal i32 @fdt_sw_probe_(ptr noundef %0) #0 {
  %2 = alloca i32, align 4
  %3 = alloca ptr, align 8
  store ptr %0, ptr %3, align 8
  %4 = call zeroext i1 @can_assume_(i32 noundef 2)
  br i1 %4, label %19, label %5

5:                                                ; preds = %1
  %6 = load ptr, ptr %3, align 8
  %7 = getelementptr inbounds nuw %struct.fdt_header, ptr %6, i32 0, i32 0
  %8 = call i32 @fdt32_ld(ptr noundef %7)
  %9 = icmp eq i32 %8, -804389139
  br i1 %9, label %10, label %11

10:                                               ; preds = %5
  store i32 -7, ptr %2, align 4
  br label %20

11:                                               ; preds = %5
  %12 = load ptr, ptr %3, align 8
  %13 = getelementptr inbounds nuw %struct.fdt_header, ptr %12, i32 0, i32 0
  %14 = call i32 @fdt32_ld(ptr noundef %13)
  %15 = icmp ne i32 %14, 804389138
  br i1 %15, label %16, label %17

16:                                               ; preds = %11
  store i32 -9, ptr %2, align 4
  br label %20

17:                                               ; preds = %11
  br label %18

18:                                               ; preds = %17
  br label %19

19:                                               ; preds = %18, %1
  store i32 0, ptr %2, align 4
  br label %20

20:                                               ; preds = %19, %16, %10
  %21 = load i32, ptr %2, align 4
  ret i32 %21
}

; Function Attrs: nounwind uwtable
define dso_local i32 @fdt_resize(ptr noundef %0, ptr noundef %1, i32 noundef %2) #0 {
  %4 = alloca i32, align 4
  %5 = alloca ptr, align 8
  %6 = alloca ptr, align 8
  %7 = alloca i32, align 4
  %8 = alloca i64, align 8
  %9 = alloca i64, align 8
  %10 = alloca ptr, align 8
  %11 = alloca ptr, align 8
  %12 = alloca i32, align 4
  %13 = alloca i32, align 4
  store ptr %0, ptr %5, align 8
  store ptr %1, ptr %6, align 8
  store i32 %2, ptr %7, align 4
  call void @llvm.lifetime.start.p0(i64 8, ptr %8) #7
  store i64 0, ptr %8, align 8, !annotation !4
  call void @llvm.lifetime.start.p0(i64 8, ptr %9) #7
  store i64 0, ptr %9, align 8, !annotation !4
  call void @llvm.lifetime.start.p0(i64 8, ptr %10) #7
  store ptr null, ptr %10, align 8, !annotation !4
  call void @llvm.lifetime.start.p0(i64 8, ptr %11) #7
  store ptr null, ptr %11, align 8, !annotation !4
  call void @llvm.lifetime.start.p0(i64 4, ptr %12) #7
  store i32 0, ptr %12, align 4, !annotation !4
  %14 = load ptr, ptr %5, align 8
  %15 = call i32 @fdt_sw_probe_(ptr noundef %14)
  store i32 %15, ptr %12, align 4
  %16 = icmp ne i32 %15, 0
  br i1 %16, label %17, label %19

17:                                               ; preds = %3
  %18 = load i32, ptr %12, align 4
  store i32 %18, ptr %4, align 4
  store i32 1, ptr %13, align 4
  br label %20

19:                                               ; preds = %3
  store i32 0, ptr %13, align 4
  br label %20

20:                                               ; preds = %19, %17
  call void @llvm.lifetime.end.p0(i64 4, ptr %12) #7
  %21 = load i32, ptr %13, align 4
  switch i32 %21, label %103 [
    i32 0, label %22
  ]

22:                                               ; preds = %20
  %23 = load i32, ptr %7, align 4
  %24 = icmp slt i32 %23, 0
  br i1 %24, label %25, label %26

25:                                               ; preds = %22
  store i32 -3, ptr %4, align 4
  store i32 1, ptr %13, align 4
  br label %103

26:                                               ; preds = %22
  %27 = load ptr, ptr %5, align 8
  %28 = getelementptr inbounds nuw %struct.fdt_header, ptr %27, i32 0, i32 2
  %29 = call i32 @fdt32_ld(ptr noundef %28)
  %30 = load ptr, ptr %5, align 8
  %31 = getelementptr inbounds nuw %struct.fdt_header, ptr %30, i32 0, i32 9
  %32 = call i32 @fdt32_ld(ptr noundef %31)
  %33 = add i32 %29, %32
  %34 = zext i32 %33 to i64
  store i64 %34, ptr %8, align 8
  %35 = load ptr, ptr %5, align 8
  %36 = getelementptr inbounds nuw %struct.fdt_header, ptr %35, i32 0, i32 8
  %37 = call i32 @fdt32_ld(ptr noundef %36)
  %38 = zext i32 %37 to i64
  store i64 %38, ptr %9, align 8
  %39 = call zeroext i1 @can_assume_(i32 noundef 1)
  br i1 %39, label %50, label %40

40:                                               ; preds = %26
  %41 = load i64, ptr %8, align 8
  %42 = load i64, ptr %9, align 8
  %43 = add i64 %41, %42
  %44 = load ptr, ptr %5, align 8
  %45 = getelementptr inbounds nuw %struct.fdt_header, ptr %44, i32 0, i32 1
  %46 = call i32 @fdt32_ld(ptr noundef %45)
  %47 = zext i32 %46 to i64
  %48 = icmp ugt i64 %43, %47
  br i1 %48, label %49, label %50

49:                                               ; preds = %40
  store i32 -13, ptr %4, align 4
  store i32 1, ptr %13, align 4
  br label %103

50:                                               ; preds = %40, %26
  %51 = load i64, ptr %8, align 8
  %52 = load i64, ptr %9, align 8
  %53 = add i64 %51, %52
  %54 = load i32, ptr %7, align 4
  %55 = zext i32 %54 to i64
  %56 = icmp ugt i64 %53, %55
  br i1 %56, label %57, label %58

57:                                               ; preds = %50
  store i32 -3, ptr %4, align 4
  store i32 1, ptr %13, align 4
  br label %103

58:                                               ; preds = %50
  %59 = load ptr, ptr %5, align 8
  %60 = load ptr, ptr %5, align 8
  %61 = getelementptr inbounds nuw %struct.fdt_header, ptr %60, i32 0, i32 1
  %62 = call i32 @fdt32_ld(ptr noundef %61)
  %63 = zext i32 %62 to i64
  %64 = getelementptr inbounds nuw i8, ptr %59, i64 %63
  %65 = load i64, ptr %9, align 8
  %66 = sub i64 0, %65
  %67 = getelementptr inbounds i8, ptr %64, i64 %66
  store ptr %67, ptr %10, align 8
  %68 = load ptr, ptr %6, align 8
  %69 = load i32, ptr %7, align 4
  %70 = sext i32 %69 to i64
  %71 = getelementptr inbounds i8, ptr %68, i64 %70
  %72 = load i64, ptr %9, align 8
  %73 = sub i64 0, %72
  %74 = getelementptr inbounds i8, ptr %71, i64 %73
  store ptr %74, ptr %11, align 8
  %75 = load ptr, ptr %6, align 8
  %76 = load ptr, ptr %5, align 8
  %77 = icmp ule ptr %75, %76
  br i1 %77, label %78, label %85

78:                                               ; preds = %58
  %79 = load ptr, ptr %6, align 8
  %80 = load ptr, ptr %5, align 8
  %81 = load i64, ptr %8, align 8
  call void @llvm.memmove.p0.p0.i64(ptr align 1 %79, ptr align 1 %80, i64 %81, i1 false)
  %82 = load ptr, ptr %11, align 8
  %83 = load ptr, ptr %10, align 8
  %84 = load i64, ptr %9, align 8
  call void @llvm.memmove.p0.p0.i64(ptr align 1 %82, ptr align 1 %83, i64 %84, i1 false)
  br label %92

85:                                               ; preds = %58
  %86 = load ptr, ptr %11, align 8
  %87 = load ptr, ptr %10, align 8
  %88 = load i64, ptr %9, align 8
  call void @llvm.memmove.p0.p0.i64(ptr align 1 %86, ptr align 1 %87, i64 %88, i1 false)
  %89 = load ptr, ptr %6, align 8
  %90 = load ptr, ptr %5, align 8
  %91 = load i64, ptr %8, align 8
  call void @llvm.memmove.p0.p0.i64(ptr align 1 %89, ptr align 1 %90, i64 %91, i1 false)
  br label %92

92:                                               ; preds = %85, %78
  %93 = load ptr, ptr %6, align 8
  %94 = load i32, ptr %7, align 4
  call void @fdt_set_totalsize(ptr noundef %93, i32 noundef %94)
  %95 = load ptr, ptr %6, align 8
  %96 = getelementptr inbounds nuw %struct.fdt_header, ptr %95, i32 0, i32 3
  %97 = call i32 @fdt32_ld(ptr noundef %96)
  %98 = icmp ne i32 %97, 0
  br i1 %98, label %99, label %102

99:                                               ; preds = %92
  %100 = load ptr, ptr %6, align 8
  %101 = load i32, ptr %7, align 4
  call void @fdt_set_off_dt_strings(ptr noundef %100, i32 noundef %101)
  br label %102

102:                                              ; preds = %99, %92
  store i32 0, ptr %4, align 4
  store i32 1, ptr %13, align 4
  br label %103

103:                                              ; preds = %102, %57, %49, %25, %20
  call void @llvm.lifetime.end.p0(i64 8, ptr %11) #7
  call void @llvm.lifetime.end.p0(i64 8, ptr %10) #7
  call void @llvm.lifetime.end.p0(i64 8, ptr %9) #7
  call void @llvm.lifetime.end.p0(i64 8, ptr %8) #7
  %104 = load i32, ptr %4, align 4
  ret i32 %104
}