; Function Attrs: mustprogress nofree norecurse nosync nounwind willreturn memory(argmem: readwrite) uwtable
define dso_local range(i32 -13, 1) i32 @fdt_resize(ptr noundef readonly captures(address) %0, ptr noundef captures(address) %1, i32 noundef %2) local_unnamed_addr #3 {
  %4 = load i8, ptr %0, align 1
  %5 = zext i8 %4 to i32
  %6 = shl nuw i32 %5, 24
  %7 = getelementptr inbounds nuw i8, ptr %0, i64 1
  %8 = load i8, ptr %7, align 1
  %9 = zext i8 %8 to i32
  %10 = shl nuw nsw i32 %9, 16
  %11 = or disjoint i32 %10, %6
  %12 = getelementptr inbounds nuw i8, ptr %0, i64 2
  %13 = load i8, ptr %12, align 1
  %14 = zext i8 %13 to i32
  %15 = shl nuw nsw i32 %14, 8
  %16 = or disjoint i32 %11, %15
  %17 = getelementptr inbounds nuw i8, ptr %0, i64 3
  %18 = load i8, ptr %17, align 1
  %19 = zext i8 %18 to i32
  %20 = or disjoint i32 %16, %19
  %21 = icmp eq i32 %20, -804389139
  %.not.i = icmp eq i32 %20, 804389138
  %..i = select i1 %.not.i, i32 0, i32 -9
  %.0.i = select i1 %21, i32 -7, i32 %..i
  br i1 %.not.i, label %22, label %133

22:                                               ; preds = %3
  %23 = icmp slt i32 %2, 0
  br i1 %23, label %133, label %24

24:                                               ; preds = %22
  %25 = getelementptr inbounds nuw i8, ptr %0, i64 8
  %26 = load i8, ptr %25, align 1
  %27 = zext i8 %26 to i64
  %28 = shl nuw nsw i64 %27, 24
  %29 = getelementptr inbounds nuw i8, ptr %0, i64 9
  %30 = load i8, ptr %29, align 1
  %31 = zext i8 %30 to i64
  %32 = shl nuw nsw i64 %31, 16
  %33 = or disjoint i64 %32, %28
  %34 = getelementptr inbounds nuw i8, ptr %0, i64 10
  %35 = load i8, ptr %34, align 1
  %36 = zext i8 %35 to i64
  %37 = shl nuw nsw i64 %36, 8
  %38 = or disjoint i64 %33, %37
  %39 = getelementptr inbounds nuw i8, ptr %0, i64 11
  %40 = load i8, ptr %39, align 1
  %41 = zext i8 %40 to i64
  %42 = or disjoint i64 %38, %41
  %43 = getelementptr inbounds nuw i8, ptr %0, i64 36
  %44 = load i8, ptr %43, align 1
  %45 = zext i8 %44 to i64
  %46 = shl nuw nsw i64 %45, 24
  %47 = getelementptr inbounds nuw i8, ptr %0, i64 37
  %48 = load i8, ptr %47, align 1
  %49 = zext i8 %48 to i64
  %50 = shl nuw nsw i64 %49, 16
  %51 = or disjoint i64 %50, %46
  %52 = getelementptr inbounds nuw i8, ptr %0, i64 38
  %53 = load i8, ptr %52, align 1
  %54 = zext i8 %53 to i64
  %55 = shl nuw nsw i64 %54, 8
  %56 = or disjoint i64 %51, %55
  %57 = getelementptr inbounds nuw i8, ptr %0, i64 39
  %58 = load i8, ptr %57, align 1
  %59 = zext i8 %58 to i64
  %60 = or disjoint i64 %56, %59
  %61 = add nuw nsw i64 %60, %42
  %62 = and i64 %61, 4294967295
  %63 = getelementptr inbounds nuw i8, ptr %0, i64 32
  %64 = load i8, ptr %63, align 1
  %65 = zext i8 %64 to i64
  %66 = shl nuw nsw i64 %65, 24
  %67 = getelementptr inbounds nuw i8, ptr %0, i64 33
  %68 = load i8, ptr %67, align 1
  %69 = zext i8 %68 to i64
  %70 = shl nuw nsw i64 %69, 16
  %71 = or disjoint i64 %70, %66
  %72 = getelementptr inbounds nuw i8, ptr %0, i64 34
  %73 = load i8, ptr %72, align 1
  %74 = zext i8 %73 to i64
  %75 = shl nuw nsw i64 %74, 8
  %76 = or disjoint i64 %71, %75
  %77 = getelementptr inbounds nuw i8, ptr %0, i64 35
  %78 = load i8, ptr %77, align 1
  %79 = zext i8 %78 to i64
  %80 = or disjoint i64 %76, %79
  %81 = add nuw nsw i64 %80, %62
  %82 = getelementptr inbounds nuw i8, ptr %0, i64 4
  %83 = load i8, ptr %82, align 1
  %84 = zext i8 %83 to i64
  %85 = shl nuw nsw i64 %84, 24
  %86 = getelementptr inbounds nuw i8, ptr %0, i64 5
  %87 = load i8, ptr %86, align 1
  %88 = zext i8 %87 to i64
  %89 = shl nuw nsw i64 %88, 16
  %90 = or disjoint i64 %89, %85
  %91 = getelementptr inbounds nuw i8, ptr %0, i64 6
  %92 = load i8, ptr %91, align 1
  %93 = zext i8 %92 to i64
  %94 = shl nuw nsw i64 %93, 8
  %95 = or disjoint i64 %90, %94
  %96 = getelementptr inbounds nuw i8, ptr %0, i64 7
  %97 = load i8, ptr %96, align 1
  %98 = zext i8 %97 to i64
  %99 = or disjoint i64 %95, %98
  %100 = icmp samesign ugt i64 %81, %99
  br i1 %100, label %133, label %101

101:                                              ; preds = %24
  %102 = zext nneg i32 %2 to i64
  %103 = icmp samesign ugt i64 %81, %102
  br i1 %103, label %133, label %104

104:                                              ; preds = %101
  %105 = getelementptr inbounds nuw i8, ptr %0, i64 %99
  %106 = sub nsw i64 0, %80
  %107 = getelementptr inbounds i8, ptr %105, i64 %106
  %108 = getelementptr inbounds nuw i8, ptr %1, i64 %102
  %109 = getelementptr inbounds i8, ptr %108, i64 %106
  %.not44 = icmp ugt ptr %1, %0
  br i1 %.not44, label %111, label %110

110:                                              ; preds = %104
  tail call void @llvm.memmove.p0.p0.i64(ptr align 1 %1, ptr nonnull align 1 %0, i64 %62, i1 false)
  tail call void @llvm.memmove.p0.p0.i64(ptr align 1 %109, ptr nonnull align 1 %107, i64 %80, i1 false)
  br label %112

111:                                              ; preds = %104
  tail call void @llvm.memmove.p0.p0.i64(ptr nonnull align 1 %109, ptr nonnull align 1 %107, i64 %80, i1 false)
  tail call void @llvm.memmove.p0.p0.i64(ptr nonnull align 1 %1, ptr nonnull align 1 %0, i64 %62, i1 false)
  br label %112

112:                                              ; preds = %111, %110
  %rev.i.i = tail call noundef i32 @llvm.bswap.i32(i32 %2)
  %113 = getelementptr inbounds nuw i8, ptr %1, i64 4
  store i32 %rev.i.i, ptr %113, align 4
  %114 = getelementptr inbounds nuw i8, ptr %1, i64 12
  %115 = load i8, ptr %114, align 1
  %116 = zext i8 %115 to i32
  %117 = shl nuw i32 %116, 24
  %118 = getelementptr inbounds nuw i8, ptr %1, i64 13
  %119 = load i8, ptr %118, align 1
  %120 = zext i8 %119 to i32
  %121 = shl nuw nsw i32 %120, 16
  %122 = or disjoint i32 %121, %117
  %123 = getelementptr inbounds nuw i8, ptr %1, i64 14
  %124 = load i8, ptr %123, align 1
  %125 = zext i8 %124 to i32
  %126 = shl nuw nsw i32 %125, 8
  %127 = or disjoint i32 %122, %126
  %128 = getelementptr inbounds nuw i8, ptr %1, i64 15
  %129 = load i8, ptr %128, align 1
  %130 = zext i8 %129 to i32
  %131 = or disjoint i32 %127, %130
  %.not45 = icmp eq i32 %131, 0
  br i1 %.not45, label %133, label %132

132:                                              ; preds = %112
  store i32 %rev.i.i, ptr %114, align 4
  br label %133

133:                                              ; preds = %112, %132, %101, %24, %22, %3
  %.1 = phi i32 [ %.0.i, %3 ], [ -3, %22 ], [ -13, %24 ], [ -3, %101 ], [ 0, %132 ], [ 0, %112 ]
  ret i32 %.1
}